; Function Attrs: nounwind uwtable
define internal noundef i32 @dispatch_standard_error(ptr noundef %0, i32 noundef returned %1) #0 {
  %3 = tail call ptr @exr_get_default_error_message(i32 noundef %1) #12
  %.not.i = icmp eq ptr %0, null
  br i1 %.not.i, label %7, label %4

4:                                                ; preds = %2
  %5 = getelementptr inbounds nuw i8, ptr %0, i64 80
  %6 = load ptr, ptr %5, align 8, !tbaa !54
  tail call void %6(ptr noundef nonnull %0, i32 noundef %1, ptr noundef %3) #12
  br label %dispatch_error.exit

7:                                                ; preds = %2
  tail call void @default_error_handler(ptr noundef null, i32 noundef %1, ptr noundef %3)
  br label %dispatch_error.exit

dispatch_error.exit:                              ; preds = %4, %7
  ret i32 %1
}